target datalayout = "e-m:e-p270:32:32-p271:32:32-p272:64:64-i64:64-i128:128-f80:128-n8:16:32:64-S128"
target triple = "x86_64-pc-linux-gnu"

; Function Attrs: mustprogress uwtable
define void @_ZN11ByteViewTab14setTabsVisibleEv(ptr noundef nonnull align 8 dereferenceable(65) %0) #0 align 2 {
  %2 = alloca ptr, align 8
  store ptr %0, ptr %2, align 8
  %3 = load ptr, ptr %2, align 8
  %4 = call noundef i32 @_ZNK10QTabWidget5countEv(ptr noundef nonnull align 8 dereferenceable(40) %3)
  %5 = icmp sgt i32 %4, 1
  br i1 %5, label %6, label %8

6:                                                ; preds = %1
  %7 = call noundef ptr @_ZNK10QTabWidget6tabBarEv(ptr noundef nonnull align 8 dereferenceable(40) %3)
  call void @_ZN7QWidget4showEv(ptr noundef nonnull align 8 dereferenceable(40) %7)
  br label %10

8:                                                ; preds = %1
  %9 = call noundef ptr @_ZNK10QTabWidget6tabBarEv(ptr noundef nonnull align 8 dereferenceable(40) %3)
  call void @_ZN7QWidget4hideEv(ptr noundef nonnull align 8 dereferenceable(40) %9)
  br label %10

10:                                               ; preds = %8, %6
  ret void
}