; Function Attrs: mustprogress uwtable
define void @_ZN11ByteViewTab14setTabsVisibleEv(ptr noundef nonnull align 8 dereferenceable(65) %0) local_unnamed_addr #0 align 2 {
  %2 = tail call noundef i32 @_ZNK10QTabWidget5countEv(ptr noundef nonnull align 8 dereferenceable(40) %0)
  %3 = icmp sgt i32 %2, 1
  %4 = tail call noundef ptr @_ZNK10QTabWidget6tabBarEv(ptr noundef nonnull align 8 dereferenceable(40) %0)
  br i1 %3, label %5, label %6

5:                                                ; preds = %1
  tail call void @_ZN7QWidget4showEv(ptr noundef nonnull align 8 dereferenceable(40) %4)
  br label %7

6:                                                ; preds = %1
  tail call void @_ZN7QWidget4hideEv(ptr noundef nonnull align 8 dereferenceable(40) %4)
  br label %7

7:                                                ; preds = %6, %5
  ret void
}